target datalayout = "e-m:e-p270:32:32-p271:32:32-p272:64:64-i64:64-i128:128-f80:128-n8:16:32:64-S128"
target triple = "x86_64-pc-linux-gnu"

%struct._generic_N_Vector = type { ptr, ptr, ptr }
%struct._N_VectorContent_Serial = type { i64, i32, ptr }

; Function Attrs: nounwind uwtable
define double @N_VDotProd_Serial(ptr noundef %0, ptr noundef %1) #0 {
  %3 = alloca ptr, align 8
  %4 = alloca ptr, align 8
  %5 = alloca i64, align 8
  %6 = alloca i64, align 8
  %7 = alloca double, align 8
  %8 = alloca ptr, align 8
  %9 = alloca ptr, align 8
  store ptr %0, ptr %3, align 8, !tbaa !10
  store ptr %1, ptr %4, align 8, !tbaa !10
  call void @llvm.lifetime.start.p0(i64 8, ptr %5) #6
  call void @llvm.lifetime.start.p0(i64 8, ptr %6) #6
  call void @llvm.lifetime.start.p0(i64 8, ptr %7) #6
  call void @llvm.lifetime.start.p0(i64 8, ptr %8) #6
  call void @llvm.lifetime.start.p0(i64 8, ptr %9) #6
  store double 0.000000e+00, ptr %7, align 8, !tbaa !72
  store ptr null, ptr %9, align 8, !tbaa !69
  store ptr null, ptr %8, align 8, !tbaa !69
  %10 = load ptr, ptr %3, align 8, !tbaa !10
  %11 = getelementptr inbounds nuw %struct._generic_N_Vector, ptr %10, i32 0, i32 0
  %12 = load ptr, ptr %11, align 8, !tbaa !61
  %13 = getelementptr inbounds nuw %struct._N_VectorContent_Serial, ptr %12, i32 0, i32 0
  %14 = load i64, ptr %13, align 8, !tbaa !62
  store i64 %14, ptr %6, align 8, !tbaa !3
  %15 = load ptr, ptr %3, align 8, !tbaa !10
  %16 = getelementptr inbounds nuw %struct._generic_N_Vector, ptr %15, i32 0, i32 0
  %17 = load ptr, ptr %16, align 8, !tbaa !61
  %18 = getelementptr inbounds nuw %struct._N_VectorContent_Serial, ptr %17, i32 0, i32 2
  %19 = load ptr, ptr %18, align 8, !tbaa !67
  store ptr %19, ptr %8, align 8, !tbaa !69
  %20 = load ptr, ptr %4, align 8, !tbaa !10
  %21 = getelementptr inbounds nuw %struct._generic_N_Vector, ptr %20, i32 0, i32 0
  %22 = load ptr, ptr %21, align 8, !tbaa !61
  %23 = getelementptr inbounds nuw %struct._N_VectorContent_Serial, ptr %22, i32 0, i32 2
  %24 = load ptr, ptr %23, align 8, !tbaa !67
  store ptr %24, ptr %9, align 8, !tbaa !69
  store i64 0, ptr %5, align 8, !tbaa !3
  br label %25

25:                                               ; preds = %40, %2
  %26 = load i64, ptr %5, align 8, !tbaa !3
  %27 = load i64, ptr %6, align 8, !tbaa !3
  %28 = icmp slt i64 %26, %27
  br i1 %28, label %29, label %43

29:                                               ; preds = %25
  %30 = load ptr, ptr %8, align 8, !tbaa !69
  %31 = load i64, ptr %5, align 8, !tbaa !3
  %32 = getelementptr inbounds double, ptr %30, i64 %31
  %33 = load double, ptr %32, align 8, !tbaa !72
  %34 = load ptr, ptr %9, align 8, !tbaa !69
  %35 = load i64, ptr %5, align 8, !tbaa !3
  %36 = getelementptr inbounds double, ptr %34, i64 %35
  %37 = load double, ptr %36, align 8, !tbaa !72
  %38 = load double, ptr %7, align 8, !tbaa !72
  %39 = call double @llvm.fmuladd.f64(double %33, double %37, double %38)
  store double %39, ptr %7, align 8, !tbaa !72
  br label %40

40:                                               ; preds = %29
  %41 = load i64, ptr %5, align 8, !tbaa !3
  %42 = add nsw i64 %41, 1
  store i64 %42, ptr %5, align 8, !tbaa !3
  br label %25

43:                                               ; preds = %25
  %44 = load double, ptr %7, align 8, !tbaa !72
  call void @llvm.lifetime.end.p0(i64 8, ptr %9) #6
  call void @llvm.lifetime.end.p0(i64 8, ptr %8) #6
  call void @llvm.lifetime.end.p0(i64 8, ptr %7) #6
  call void @llvm.lifetime.end.p0(i64 8, ptr %6) #6
  call void @llvm.lifetime.end.p0(i64 8, ptr %5) #6
  ret double %44
}

; Function Attrs: nounwind uwtable
define i32 @N_VDotProdMulti_Serial(i32 noundef %0, ptr noundef %1, ptr noundef %2, ptr noundef %3) #0 {
  %5 = alloca i32, align 4
  %6 = alloca i32, align 4
  %7 = alloca ptr, align 8
  %8 = alloca ptr, align 8
  %9 = alloca ptr, align 8
  %10 = alloca ptr, align 8
  %11 = alloca i32, align 4
  %12 = alloca i64, align 8
  %13 = alloca i64, align 8
  %14 = alloca ptr, align 8
  %15 = alloca ptr, align 8
  %16 = alloca i32, align 4
  store i32 %0, ptr %6, align 4, !tbaa !74
  store ptr %1, ptr %7, align 8, !tbaa !10
  store ptr %2, ptr %8, align 8, !tbaa !75
  store ptr %3, ptr %9, align 8, !tbaa !69
  call void @llvm.lifetime.start.p0(i64 8, ptr %10) #6
  %17 = load ptr, ptr %7, align 8, !tbaa !10
  %18 = getelementptr inbounds nuw %struct._generic_N_Vector, ptr %17, i32 0, i32 2
  %19 = load ptr, ptr %18, align 8, !tbaa !68
  store ptr %19, ptr %10, align 8, !tbaa !7
  call void @llvm.lifetime.start.p0(i64 4, ptr %11) #6
  call void @llvm.lifetime.start.p0(i64 8, ptr %12) #6
  call void @llvm.lifetime.start.p0(i64 8, ptr %13) #6
  call void @llvm.lifetime.start.p0(i64 8, ptr %14) #6
  store ptr null, ptr %14, align 8, !tbaa !69
  call void @llvm.lifetime.start.p0(i64 8, ptr %15) #6
  store ptr null, ptr %15, align 8, !tbaa !69
  %20 = load i32, ptr %6, align 4, !tbaa !74
  %21 = icmp eq i32 %20, 1
  br i1 %21, label %22, label %30

22:                                               ; preds = %4
  %23 = load ptr, ptr %7, align 8, !tbaa !10
  %24 = load ptr, ptr %8, align 8, !tbaa !75
  %25 = getelementptr inbounds ptr, ptr %24, i64 0
  %26 = load ptr, ptr %25, align 8, !tbaa !10
  %27 = call double @N_VDotProd_Serial(ptr noundef %23, ptr noundef %26)
  %28 = load ptr, ptr %9, align 8, !tbaa !69
  %29 = getelementptr inbounds double, ptr %28, i64 0
  store double %27, ptr %29, align 8, !tbaa !72
  store i32 0, ptr %5, align 4
  store i32 1, ptr %16, align 4
  br label %86

30:                                               ; preds = %4
  %31 = load ptr, ptr %7, align 8, !tbaa !10
  %32 = getelementptr inbounds nuw %struct._generic_N_Vector, ptr %31, i32 0, i32 0
  %33 = load ptr, ptr %32, align 8, !tbaa !61
  %34 = getelementptr inbounds nuw %struct._N_VectorContent_Serial, ptr %33, i32 0, i32 0
  %35 = load i64, ptr %34, align 8, !tbaa !62
  store i64 %35, ptr %13, align 8, !tbaa !3
  %36 = load ptr, ptr %7, align 8, !tbaa !10
  %37 = getelementptr inbounds nuw %struct._generic_N_Vector, ptr %36, i32 0, i32 0
  %38 = load ptr, ptr %37, align 8, !tbaa !61
  %39 = getelementptr inbounds nuw %struct._N_VectorContent_Serial, ptr %38, i32 0, i32 2
  %40 = load ptr, ptr %39, align 8, !tbaa !67
  store ptr %40, ptr %14, align 8, !tbaa !69
  store i32 0, ptr %11, align 4, !tbaa !74
  br label %41

41:                                               ; preds = %82, %30
  %42 = load i32, ptr %11, align 4, !tbaa !74
  %43 = load i32, ptr %6, align 4, !tbaa !74
  %44 = icmp slt i32 %42, %43
  br i1 %44, label %45, label %85

45:                                               ; preds = %41
  %46 = load ptr, ptr %8, align 8, !tbaa !75
  %47 = load i32, ptr %11, align 4, !tbaa !74
  %48 = sext i32 %47 to i64
  %49 = getelementptr inbounds ptr, ptr %46, i64 %48
  %50 = load ptr, ptr %49, align 8, !tbaa !10
  %51 = getelementptr inbounds nuw %struct._generic_N_Vector, ptr %50, i32 0, i32 0
  %52 = load ptr, ptr %51, align 8, !tbaa !61
  %53 = getelementptr inbounds nuw %struct._N_VectorContent_Serial, ptr %52, i32 0, i32 2
  %54 = load ptr, ptr %53, align 8, !tbaa !67
  store ptr %54, ptr %15, align 8, !tbaa !69
  %55 = load ptr, ptr %9, align 8, !tbaa !69
  %56 = load i32, ptr %11, align 4, !tbaa !74
  %57 = sext i32 %56 to i64
  %58 = getelementptr inbounds double, ptr %55, i64 %57
  store double 0.000000e+00, ptr %58, align 8, !tbaa !72
  store i64 0, ptr %12, align 8, !tbaa !3
  br label %59

59:                                               ; preds = %78, %45
  %60 = load i64, ptr %12, align 8, !tbaa !3
  %61 = load i64, ptr %13, align 8, !tbaa !3
  %62 = icmp slt i64 %60, %61
  br i1 %62, label %63, label %81

63:                                               ; preds = %59
  %64 = load ptr, ptr %14, align 8, !tbaa !69
  %65 = load i64, ptr %12, align 8, !tbaa !3
  %66 = getelementptr inbounds double, ptr %64, i64 %65
  %67 = load double, ptr %66, align 8, !tbaa !72
  %68 = load ptr, ptr %15, align 8, !tbaa !69
  %69 = load i64, ptr %12, align 8, !tbaa !3
  %70 = getelementptr inbounds double, ptr %68, i64 %69
  %71 = load double, ptr %70, align 8, !tbaa !72
  %72 = load ptr, ptr %9, align 8, !tbaa !69
  %73 = load i32, ptr %11, align 4, !tbaa !74
  %74 = sext i32 %73 to i64
  %75 = getelementptr inbounds double, ptr %72, i64 %74
  %76 = load double, ptr %75, align 8, !tbaa !72
  %77 = call double @llvm.fmuladd.f64(double %67, double %71, double %76)
  store double %77, ptr %75, align 8, !tbaa !72
  br label %78

78:                                               ; preds = %63
  %79 = load i64, ptr %12, align 8, !tbaa !3
  %80 = add nsw i64 %79, 1
  store i64 %80, ptr %12, align 8, !tbaa !3
  br label %59

81:                                               ; preds = %59
  br label %82

82:                                               ; preds = %81
  %83 = load i32, ptr %11, align 4, !tbaa !74
  %84 = add nsw i32 %83, 1
  store i32 %84, ptr %11, align 4, !tbaa !74
  br label %41

85:                                               ; preds = %41
  store i32 0, ptr %5, align 4
  store i32 1, ptr %16, align 4
  br label %86

86:                                               ; preds = %85, %22
  call void @llvm.lifetime.end.p0(i64 8, ptr %15) #6
  call void @llvm.lifetime.end.p0(i64 8, ptr %14) #6
  call void @llvm.lifetime.end.p0(i64 8, ptr %13) #6
  call void @llvm.lifetime.end.p0(i64 8, ptr %12) #6
  call void @llvm.lifetime.end.p0(i64 4, ptr %11) #6
  call void @llvm.lifetime.end.p0(i64 8, ptr %10) #6
  %87 = load i32, ptr %5, align 4
  ret i32 %87
}