; Function Attrs: nofree norecurse nosync nounwind memory(read, argmem: readwrite, inaccessiblemem: none) uwtable
define noundef i32 @N_VDotProdMulti_Serial(i32 noundef %0, ptr noundef readonly captures(none) %1, ptr noundef readonly captures(none) %2, ptr noundef writeonly captures(none) %3) #10 {
  %5 = icmp eq i32 %0, 1
  br i1 %5, label %6, label %22

6:                                                ; preds = %4
  %7 = load ptr, ptr %2, align 8, !tbaa !67
  %8 = load ptr, ptr %1, align 8, !tbaa !54
  %9 = load i64, ptr %8, align 8, !tbaa !55
  %10 = getelementptr inbounds nuw i8, ptr %8, i64 16
  %11 = load ptr, ptr %10, align 8, !tbaa !61
  %12 = load ptr, ptr %7, align 8, !tbaa !54
  %13 = getelementptr inbounds nuw i8, ptr %12, i64 16
  %14 = load ptr, ptr %13, align 8, !tbaa !61
  %15 = icmp sgt i64 %9, 0
  br i1 %15, label %.lr.ph.i, label %N_VDotProd_Serial.exit

.lr.ph.i:                                         ; preds = %6, %.lr.ph.i
  %.013.i = phi double [ %20, %.lr.ph.i ], [ 0.000000e+00, %6 ]
  %.01112.i = phi i64 [ %21, %.lr.ph.i ], [ 0, %6 ]
  %16 = getelementptr inbounds nuw double, ptr %11, i64 %.01112.i
  %17 = load double, ptr %16, align 8, !tbaa !64
  %18 = getelementptr inbounds nuw double, ptr %14, i64 %.01112.i
  %19 = load double, ptr %18, align 8, !tbaa !64
  %20 = tail call double @llvm.fmuladd.f64(double %17, double %19, double %.013.i)
  %21 = add nuw nsw i64 %.01112.i, 1
  %exitcond.not.i = icmp eq i64 %21, %9
  br i1 %exitcond.not.i, label %N_VDotProd_Serial.exit, label %.lr.ph.i

N_VDotProd_Serial.exit:                           ; preds = %.lr.ph.i, %6
  %.0.lcssa.i = phi double [ 0.000000e+00, %6 ], [ %20, %.lr.ph.i ]
  store double %.0.lcssa.i, ptr %3, align 8, !tbaa !64
  br label %.loopexit

22:                                               ; preds = %4
  %23 = load ptr, ptr %1, align 8, !tbaa !54
  %24 = load i64, ptr %23, align 8, !tbaa !55
  %25 = getelementptr inbounds nuw i8, ptr %23, i64 16
  %26 = load ptr, ptr %25, align 8, !tbaa !61
  %27 = icmp sgt i32 %0, 0
  br i1 %27, label %.lr.ph28, label %.loopexit

.lr.ph28:                                         ; preds = %22
  %28 = icmp sgt i64 %24, 0
  %wide.trip.count = zext nneg i32 %0 to i64
  br i1 %28, label %.lr.ph.us, label %.lr.ph28.split.preheader

.lr.ph28.split.preheader:                         ; preds = %.lr.ph28
  %29 = shl nuw nsw i64 %wide.trip.count, 3
  tail call void @llvm.memset.p0.i64(ptr align 8 %3, i8 0, i64 %29, i1 false), !tbaa !64
  br label %.loopexit

.lr.ph.us:                                        ; preds = %.lr.ph28, %._crit_edge.us
  %indvars.iv = phi i64 [ %indvars.iv.next, %._crit_edge.us ], [ 0, %.lr.ph28 ]
  %30 = getelementptr inbounds nuw ptr, ptr %2, i64 %indvars.iv
  %31 = load ptr, ptr %30, align 8, !tbaa !67
  %32 = load ptr, ptr %31, align 8, !tbaa !54
  %33 = getelementptr inbounds nuw i8, ptr %32, i64 16
  %34 = load ptr, ptr %33, align 8, !tbaa !61
  %35 = getelementptr inbounds nuw double, ptr %3, i64 %indvars.iv
  store double 0.000000e+00, ptr %35, align 8, !tbaa !64
  br label %36

36:                                               ; preds = %.lr.ph.us, %36
  %37 = phi double [ 0.000000e+00, %.lr.ph.us ], [ %42, %36 ]
  %.02325.us = phi i64 [ 0, %.lr.ph.us ], [ %43, %36 ]
  %38 = getelementptr inbounds nuw double, ptr %26, i64 %.02325.us
  %39 = load double, ptr %38, align 8, !tbaa !64
  %40 = getelementptr inbounds nuw double, ptr %34, i64 %.02325.us
  %41 = load double, ptr %40, align 8, !tbaa !64
  %42 = tail call double @llvm.fmuladd.f64(double %39, double %41, double %37)
  store double %42, ptr %35, align 8, !tbaa !64
  %43 = add nuw nsw i64 %.02325.us, 1
  %exitcond.not = icmp eq i64 %43, %24
  br i1 %exitcond.not, label %._crit_edge.us, label %36

._crit_edge.us:                                   ; preds = %36
  %indvars.iv.next = add nuw nsw i64 %indvars.iv, 1
  %exitcond32.not = icmp eq i64 %indvars.iv.next, %wide.trip.count
  br i1 %exitcond32.not, label %.loopexit, label %.lr.ph.us

.loopexit:                                        ; preds = %._crit_edge.us, %.lr.ph28.split.preheader, %22, %N_VDotProd_Serial.exit
  ret i32 0
}